; Function Attrs: mustprogress uwtable
define void @_ZN7rocksdb24IteratorQueryTraceRecordC2Em(ptr noundef nonnull align 8 dereferenceable(208) %this, i64 noundef %timestamp) unnamed_addr #2 align 2 personality ptr @__gxx_personality_v0 {
entry:
  %timestamp_.i.i = getelementptr inbounds i8, ptr %this, i64 8
  store i64 %timestamp, ptr %timestamp_.i.i, align 8
  store ptr getelementptr inbounds ({ [9 x ptr] }, ptr @_ZTVN7rocksdb24IteratorQueryTraceRecordE, i64 0, i32 0, i64 2), ptr %this, align 8
  %lower_ = getelementptr inbounds i8, ptr %this, i64 16
  store ptr @.str, ptr %lower_, align 8
  %size_.i.i = getelementptr inbounds i8, ptr %this, i64 24
  store i64 0, ptr %size_.i.i, align 8
  %0 = getelementptr inbounds i8, ptr %this, i64 32
  tail call void @_ZN7rocksdb9CleanableC2Ev(ptr noundef nonnull align 8 dereferenceable(32) %0)
  %self_space_.i = getelementptr inbounds i8, ptr %this, i64 64
  tail call void @_ZNSt7__cxx1112basic_stringIcSt11char_traitsIcESaIcEEC1Ev(ptr noundef nonnull align 8 dereferenceable(32) %self_space_.i) #17
  %pinned_.i = getelementptr inbounds i8, ptr %this, i64 104
  store i8 0, ptr %pinned_.i, align 8
  %buf_.i = getelementptr inbounds i8, ptr %this, i64 96
  store ptr %self_space_.i, ptr %buf_.i, align 8
  %upper_ = getelementptr inbounds i8, ptr %this, i64 112
  store ptr @.str, ptr %upper_, align 8
  %size_.i.i2 = getelementptr inbounds i8, ptr %this, i64 120
  store i64 0, ptr %size_.i.i2, align 8
  %1 = getelementptr inbounds i8, ptr %this, i64 128
  invoke void @_ZN7rocksdb9CleanableC2Ev(ptr noundef nonnull align 8 dereferenceable(32) %1)
          to label %invoke.cont3 unwind label %lpad2

invoke.cont3:                                     ; preds = %entry
  %self_space_.i3 = getelementptr inbounds i8, ptr %this, i64 160
  tail call void @_ZNSt7__cxx1112basic_stringIcSt11char_traitsIcESaIcEEC1Ev(ptr noundef nonnull align 8 dereferenceable(32) %self_space_.i3) #17
  %pinned_.i4 = getelementptr inbounds i8, ptr %this, i64 200
  store i8 0, ptr %pinned_.i4, align 8
  %buf_.i5 = getelementptr inbounds i8, ptr %this, i64 192
  store ptr %self_space_.i3, ptr %buf_.i5, align 8
  ret void

lpad2:                                            ; preds = %entry
  %2 = landingpad { ptr, i32 }
          cleanup
  tail call void @_ZNSt7__cxx1112basic_stringIcSt11char_traitsIcESaIcEED1Ev(ptr noundef nonnull align 8 dereferenceable(32) %self_space_.i) #17
  tail call void @_ZN7rocksdb9CleanableD2Ev(ptr noundef nonnull align 8 dereferenceable(32) %0) #17
  resume { ptr, i32 } %2
}